; Function Attrs: mustprogress nofree norecurse nosync nounwind willreturn memory(read, inaccessiblemem: none) uwtable
define { ptr, i32 } @_ZNK10OpenSubdiv6v3_6_03Far10PatchTable21GetPatchArrayVerticesEi(ptr nocapture noundef nonnull readonly align 8 dereferenceable(273) %0, i32 noundef %1) local_unnamed_addr #6 align 2 {
  %3 = getelementptr inbounds nuw i8, ptr %0, i64 8
  %4 = sext i32 %1 to i64
  %5 = load ptr, ptr %3, align 8
  %6 = getelementptr inbounds %"struct.OpenSubdiv::v3_6_0::Far::PatchTable::PatchArray", ptr %5, i64 %4
  %7 = load i32, ptr %6, align 4
  %switch.tableidx = add i32 %7, -1
  %8 = icmp ult i32 %switch.tableidx, 10
  br i1 %8, label %switch.lookup, label %_ZN10OpenSubdiv6v3_6_03Far12getPatchSizeENS1_15PatchDescriptorE.exit

switch.lookup:                                    ; preds = %2
  %9 = zext nneg i32 %switch.tableidx to i64
  %switch.gep = getelementptr inbounds [10 x i32], ptr @switch.table._ZNK10OpenSubdiv6v3_6_03Far10PatchTable18GetPatchFVarValuesEiii.5, i64 0, i64 %9
  %switch.load = load i32, ptr %switch.gep, align 4
  br label %_ZN10OpenSubdiv6v3_6_03Far12getPatchSizeENS1_15PatchDescriptorE.exit

_ZN10OpenSubdiv6v3_6_03Far12getPatchSizeENS1_15PatchDescriptorE.exit: ; preds = %2, %switch.lookup
  %.0.i.i.i = phi i32 [ %switch.load, %switch.lookup ], [ -1, %2 ]
  %10 = getelementptr inbounds nuw i8, ptr %0, i64 32
  %11 = getelementptr inbounds nuw i8, ptr %6, i64 8
  %12 = load i32, ptr %11, align 4
  %13 = sext i32 %12 to i64
  %14 = load ptr, ptr %10, align 8
  %15 = getelementptr inbounds i32, ptr %14, i64 %13
  %16 = getelementptr inbounds nuw i8, ptr %6, i64 4
  %17 = load i32, ptr %16, align 4
  %18 = mul nsw i32 %17, %.0.i.i.i
  %.fca.0.insert = insertvalue { ptr, i32 } poison, ptr %15, 0
  %.fca.1.insert = insertvalue { ptr, i32 } %.fca.0.insert, i32 %18, 1
  ret { ptr, i32 } %.fca.1.insert
}